target datalayout = "e-m:e-p270:32:32-p271:32:32-p272:64:64-i64:64-i128:128-f80:128-n8:16:32:64-S128"
target triple = "x86_64-pc-linux-gnu"

%"struct.std::atomic.92" = type { %"struct.std::__atomic_base" }
%"struct.std::__atomic_base" = type { i32 }
%"struct.std::atomic.175" = type { %"struct.std::__atomic_base.176" }
%"struct.std::__atomic_base.176" = type { i8 }
%"class.tbb::detail::d1::blocked_range" = type { i64, i64, i64 }
%"class.tbb::detail::d1::small_object_allocator" = type { ptr }
%"struct.tbb::detail::d1::wait_node" = type { %"struct.tbb::detail::d1::node.base", %"class.tbb::detail::d1::wait_context" }
%"struct.tbb::detail::d1::node.base" = type <{ ptr, %"struct.std::atomic.92" }>
%"class.tbb::detail::d1::wait_context" = type { i64, %"struct.std::atomic.142" }
%"struct.std::atomic.142" = type { %"struct.std::__atomic_base.143" }
%"struct.std::__atomic_base.143" = type { i64 }
%"class.tbb::detail::d1::task" = type { ptr, %"class.tbb::detail::d1::task_traits", [6 x i64] }
%"class.tbb::detail::d1::task_traits" = type { i64 }
%"class.tbb::detail::d1::auto_partition_type" = type { %"struct.tbb::detail::d1::dynamic_grainsize_mode.base", [3 x i8] }
%"struct.tbb::detail::d1::dynamic_grainsize_mode.base" = type <{ %"struct.tbb::detail::d1::adaptive_mode", i32, i8 }>
%"struct.tbb::detail::d1::adaptive_mode" = type { i64 }
%"struct.tbb::detail::d1::node" = type <{ ptr, %"struct.std::atomic.92", [4 x i8] }>
%"struct.tbb::detail::d1::execution_data" = type <{ ptr, i16, i16, [4 x i8] }>
%"struct.tbb::detail::d1::tree_node" = type <{ %"struct.tbb::detail::d1::node.base", [4 x i8], %"class.tbb::detail::d1::small_object_allocator", %"struct.std::atomic.175", [7 x i8] }>
%class.Work_ParallelForN_TBB.401 = type { ptr }
%"struct.tbb::detail::d1::start_for.402" = type { %"class.tbb::detail::d1::task", %"class.tbb::detail::d1::blocked_range", %class.Work_ParallelForN_TBB.401, ptr, %"class.tbb::detail::d1::auto_partition_type", %"class.tbb::detail::d1::small_object_allocator" }

; Function Attrs: mustprogress uwtable
define linkonce_odr void @_ZN3tbb6detail2d112wait_context13add_referenceEl(ptr noundef nonnull align 8 dereferenceable(16) %0, i64 noundef %1) #0 comdat align 2 {
  %3 = alloca ptr, align 8
  %4 = alloca i64, align 8
  %5 = alloca i32, align 4
  %6 = alloca i64, align 8
  %7 = alloca i64, align 8
  %8 = alloca ptr, align 8
  %9 = alloca i64, align 8
  %10 = alloca i64, align 8
  %11 = alloca i64, align 8
  store ptr %0, ptr %8, align 8
  store i64 %1, ptr %9, align 8
  %12 = load ptr, ptr %8, align 8
  call void @_ZN3tbb6detail2d120call_itt_task_notifyENS1_11notify_typeEPv(i32 noundef 3, ptr noundef %12)
  %13 = getelementptr inbounds nuw %"class.tbb::detail::d1::wait_context", ptr %12, i32 0, i32 1
  %14 = load i64, ptr %9, align 8
  store ptr %13, ptr %3, align 8
  store i64 %14, ptr %4, align 8
  store i32 5, ptr %5, align 4
  %15 = load ptr, ptr %3, align 8
  %16 = load i32, ptr %5, align 4
  %17 = load i64, ptr %4, align 8
  store i64 %17, ptr %6, align 8
  switch i32 %16, label %18 [
    i32 1, label %21
    i32 2, label %21
    i32 3, label %24
    i32 4, label %27
    i32 5, label %30
  ]

18:                                               ; preds = %2
  %19 = load i64, ptr %6, align 8
  %20 = atomicrmw add ptr %15, i64 %19 monotonic, align 8
  store i64 %20, ptr %7, align 8
  br label %33

21:                                               ; preds = %2, %2
  %22 = load i64, ptr %6, align 8
  %23 = atomicrmw add ptr %15, i64 %22 acquire, align 8
  store i64 %23, ptr %7, align 8
  br label %33

24:                                               ; preds = %2
  %25 = load i64, ptr %6, align 8
  %26 = atomicrmw add ptr %15, i64 %25 release, align 8
  store i64 %26, ptr %7, align 8
  br label %33

27:                                               ; preds = %2
  %28 = load i64, ptr %6, align 8
  %29 = atomicrmw add ptr %15, i64 %28 acq_rel, align 8
  store i64 %29, ptr %7, align 8
  br label %33

30:                                               ; preds = %2
  %31 = load i64, ptr %6, align 8
  %32 = atomicrmw add ptr %15, i64 %31 seq_cst, align 8
  store i64 %32, ptr %7, align 8
  br label %33

33:                                               ; preds = %30, %27, %24, %21, %18
  %34 = load i64, ptr %7, align 8
  %35 = load i64, ptr %9, align 8
  %36 = add i64 %34, %35
  store i64 %36, ptr %10, align 8
  %37 = load i64, ptr %10, align 8
  %38 = icmp ne i64 %37, 0
  br i1 %38, label %42, label %39

39:                                               ; preds = %33
  %40 = ptrtoint ptr %12 to i64
  store i64 %40, ptr %11, align 8
  %41 = load i64, ptr %11, align 8
  call void @_ZN3tbb6detail2r114notify_waitersEm(i64 noundef %41)
  br label %42

42:                                               ; preds = %39, %33
  ret void
}

; Function Attrs: mustprogress uwtable
define linkonce_odr void @_ZN3tbb6detail2d122small_object_allocator10deallocateINS1_9tree_nodeEEEvPT_RKNS1_14execution_dataE(ptr noundef nonnull align 8 dereferenceable(8) %0, ptr noundef %1, ptr noundef nonnull align 8 dereferenceable(12) %2) #0 comdat align 2 {
  %4 = alloca ptr, align 8
  %5 = alloca ptr, align 8
  %6 = alloca ptr, align 8
  store ptr %0, ptr %4, align 8
  store ptr %1, ptr %5, align 8
  store ptr %2, ptr %6, align 8
  %7 = load ptr, ptr %4, align 8
  %8 = load ptr, ptr %5, align 8
  call void @_ZN3tbb6detail2d120call_itt_task_notifyENS1_11notify_typeEPv(i32 noundef 4, ptr noundef %8)
  %9 = getelementptr inbounds nuw %"class.tbb::detail::d1::small_object_allocator", ptr %7, i32 0, i32 0
  %10 = load ptr, ptr %9, align 8
  %11 = load ptr, ptr %5, align 8
  %12 = load ptr, ptr %6, align 8
  call void @_ZN3tbb6detail2r110deallocateERNS0_2d117small_object_poolEPvmRKNS2_14execution_dataE(ptr noundef nonnull align 1 dereferenceable(1) %10, ptr noundef %11, i64 noundef 32, ptr noundef nonnull align 8 dereferenceable(12) %12)
  ret void
}

; Function Attrs: mustprogress uwtable
define linkonce_odr void @_ZN3tbb6detail2d112wait_context7releaseEj(ptr noundef nonnull align 8 dereferenceable(16) %0, i32 noundef %1) #0 comdat align 2 {
  %3 = alloca ptr, align 8
  %4 = alloca i32, align 4
  store ptr %0, ptr %3, align 8
  store i32 %1, ptr %4, align 4
  %5 = load ptr, ptr %3, align 8
  %6 = load i32, ptr %4, align 4
  %7 = zext i32 %6 to i64
  %8 = sub nsw i64 0, %7
  call void @_ZN3tbb6detail2d112wait_context13add_referenceEl(ptr noundef nonnull align 8 dereferenceable(16) %5, i64 noundef %8)
  ret void
}

; Function Attrs: mustprogress uwtable
define linkonce_odr void @_ZN3tbb6detail2d122small_object_allocator13delete_objectINS1_9tree_nodeEEEvPT_RKNS1_14execution_dataE(ptr noundef nonnull align 8 dereferenceable(8) %0, ptr noundef %1, ptr noundef nonnull align 8 dereferenceable(12) %2) #0 comdat align 2 {
  %4 = alloca ptr, align 8
  %5 = alloca ptr, align 8
  %6 = alloca ptr, align 8
  %7 = alloca %"class.tbb::detail::d1::small_object_allocator", align 8
  store ptr %0, ptr %4, align 8
  store ptr %1, ptr %5, align 8
  store ptr %2, ptr %6, align 8
  %8 = load ptr, ptr %4, align 8
  call void @llvm.memcpy.p0.p0.i64(ptr align 8 %7, ptr align 8 %8, i64 8, i1 false)
  %9 = load ptr, ptr %5, align 8
  %10 = load ptr, ptr %6, align 8
  call void @_ZN3tbb6detail2d122small_object_allocator10deallocateINS1_9tree_nodeEEEvPT_RKNS1_14execution_dataE(ptr noundef nonnull align 8 dereferenceable(8) %7, ptr noundef %9, ptr noundef nonnull align 8 dereferenceable(12) %10)
  ret void
}

; Function Attrs: mustprogress nounwind uwtable
define linkonce_odr void @_ZN3tbb6detail2d19tree_node4joinEPNS1_18task_group_contextE(ptr noundef nonnull align 8 dereferenceable(25) %0, ptr noundef %1) #1 comdat align 2 {
  %3 = alloca ptr, align 8
  %4 = alloca ptr, align 8
  store ptr %0, ptr %3, align 8
  store ptr %1, ptr %4, align 8
  ret void
}

; Function Attrs: mustprogress nounwind uwtable
define linkonce_odr noundef i32 @_ZNSt13__atomic_baseIiEmmEv(ptr noundef nonnull align 4 dereferenceable(4) %0) #1 comdat align 2 {
  %2 = alloca ptr, align 8
  %3 = alloca i32, align 4
  %4 = alloca i32, align 4
  store ptr %0, ptr %2, align 8
  %5 = load ptr, ptr %2, align 8
  %6 = getelementptr inbounds nuw %"struct.std::__atomic_base", ptr %5, i32 0, i32 0
  store i32 1, ptr %3, align 4
  %7 = load i32, ptr %3, align 4
  %8 = atomicrmw sub ptr %6, i32 %7 seq_cst, align 4
  %9 = sub i32 %8, %7
  store i32 %9, ptr %4, align 4
  %10 = load i32, ptr %4, align 4
  ret i32 %10
}

; Function Attrs: mustprogress nounwind uwtable
define linkonce_odr void @_ZN3tbb6detail2d120call_itt_task_notifyENS1_11notify_typeEPv(i32 noundef %0, ptr noundef %1) #1 comdat {
  %3 = alloca i32, align 4
  %4 = alloca ptr, align 8
  store i32 %0, ptr %3, align 4
  store ptr %1, ptr %4, align 8
  ret void
}

; Function Attrs: mustprogress uwtable
define internal void @"_ZN3tbb6detail2d122small_object_allocator10deallocateINS1_9start_forINS1_13blocked_rangeImEEZN32pxrInternal_v0_24__pxrReserved__16WorkParallelForNIZNS7_12_GLOBAL__N_118_PostUpdateExtentsERKSt6vectorISt10shared_ptrINS9_16_SkinningAdapterEESaISD_EERKSA_INS7_11UsdTimeCodeESaISI_EEE3$_0EEvmOT_mE21Work_ParallelForN_TBBKNS1_16auto_partitionerEEEEEvPSO_RKNS1_14execution_dataE"(ptr noundef nonnull align 8 dereferenceable(8) %0, ptr noundef %1, ptr noundef nonnull align 8 dereferenceable(12) %2) #0 align 2 {
  %4 = alloca ptr, align 8
  %5 = alloca ptr, align 8
  %6 = alloca ptr, align 8
  store ptr %0, ptr %4, align 8
  store ptr %1, ptr %5, align 8
  store ptr %2, ptr %6, align 8
  %7 = load ptr, ptr %4, align 8
  %8 = load ptr, ptr %5, align 8
  call void @_ZN3tbb6detail2d120call_itt_task_notifyENS1_11notify_typeEPv(i32 noundef 4, ptr noundef %8)
  %9 = getelementptr inbounds nuw %"class.tbb::detail::d1::small_object_allocator", ptr %7, i32 0, i32 0
  %10 = load ptr, ptr %9, align 8
  %11 = load ptr, ptr %5, align 8
  %12 = load ptr, ptr %6, align 8
  call void @_ZN3tbb6detail2r110deallocateERNS0_2d117small_object_poolEPvmRKNS2_14execution_dataE(ptr noundef nonnull align 1 dereferenceable(1) %10, ptr noundef %11, i64 noundef 128, ptr noundef nonnull align 8 dereferenceable(12) %12)
  ret void
}

; Function Attrs: mustprogress uwtable
define linkonce_odr void @_ZN3tbb6detail2d19fold_treeINS1_9tree_nodeEEEvPNS1_4nodeERKNS1_14execution_dataE(ptr noundef %0, ptr noundef nonnull align 8 dereferenceable(12) %1) #0 comdat {
  %3 = alloca ptr, align 8
  %4 = alloca ptr, align 8
  %5 = alloca ptr, align 8
  %6 = alloca ptr, align 8
  store ptr %0, ptr %3, align 8
  store ptr %1, ptr %4, align 8
  br label %7

7:                                                ; preds = %21, %2
  %8 = load ptr, ptr %3, align 8
  call void @_ZN3tbb6detail2d120call_itt_task_notifyENS1_11notify_typeEPv(i32 noundef 3, ptr noundef %8)
  %9 = load ptr, ptr %3, align 8
  %10 = getelementptr inbounds nuw %"struct.tbb::detail::d1::node", ptr %9, i32 0, i32 1
  %11 = call noundef i32 @_ZNSt13__atomic_baseIiEmmEv(ptr noundef nonnull align 4 dereferenceable(4) %10) #11
  %12 = icmp sgt i32 %11, 0
  br i1 %12, label %13, label %14

13:                                               ; preds = %7
  br label %36

14:                                               ; preds = %7
  %15 = load ptr, ptr %3, align 8
  %16 = getelementptr inbounds nuw %"struct.tbb::detail::d1::node", ptr %15, i32 0, i32 0
  %17 = load ptr, ptr %16, align 8
  store ptr %17, ptr %5, align 8
  %18 = load ptr, ptr %5, align 8
  %19 = icmp ne ptr %18, null
  br i1 %19, label %21, label %20

20:                                               ; preds = %14
  br label %33

21:                                               ; preds = %14
  %22 = load ptr, ptr %3, align 8
  call void @_ZN3tbb6detail2d120call_itt_task_notifyENS1_11notify_typeEPv(i32 noundef 2, ptr noundef %22)
  %23 = load ptr, ptr %3, align 8
  store ptr %23, ptr %6, align 8
  %24 = load ptr, ptr %6, align 8
  %25 = load ptr, ptr %4, align 8
  %26 = getelementptr inbounds nuw %"struct.tbb::detail::d1::execution_data", ptr %25, i32 0, i32 0
  %27 = load ptr, ptr %26, align 8
  call void @_ZN3tbb6detail2d19tree_node4joinEPNS1_18task_group_contextE(ptr noundef nonnull align 8 dereferenceable(25) %24, ptr noundef %27)
  %28 = load ptr, ptr %6, align 8
  %29 = getelementptr inbounds nuw %"struct.tbb::detail::d1::tree_node", ptr %28, i32 0, i32 2
  %30 = load ptr, ptr %6, align 8
  %31 = load ptr, ptr %4, align 8
  call void @_ZN3tbb6detail2d122small_object_allocator13delete_objectINS1_9tree_nodeEEEvPT_RKNS1_14execution_dataE(ptr noundef nonnull align 8 dereferenceable(8) %29, ptr noundef %30, ptr noundef nonnull align 8 dereferenceable(12) %31)
  %32 = load ptr, ptr %5, align 8
  store ptr %32, ptr %3, align 8
  br label %7, !llvm.loop !42

33:                                               ; preds = %20
  %34 = load ptr, ptr %3, align 8
  %35 = getelementptr inbounds nuw %"struct.tbb::detail::d1::wait_node", ptr %34, i32 0, i32 1
  call void @_ZN3tbb6detail2d112wait_context7releaseEj(ptr noundef nonnull align 8 dereferenceable(16) %35, i32 noundef 1)
  br label %36

36:                                               ; preds = %33, %13
  ret void
}

; Function Attrs: mustprogress uwtable
define internal void @"_ZN3tbb6detail2d19start_forINS1_13blocked_rangeImEEZN32pxrInternal_v0_24__pxrReserved__16WorkParallelForNIZNS5_12_GLOBAL__N_118_PostUpdateExtentsERKSt6vectorISt10shared_ptrINS7_16_SkinningAdapterEESaISB_EERKS8_INS5_11UsdTimeCodeESaISG_EEE3$_0EEvmOT_mE21Work_ParallelForN_TBBKNS1_16auto_partitionerEE8finalizeERKNS1_14execution_dataE"(ptr noundef nonnull align 64 dereferenceable(128) %0, ptr noundef nonnull align 8 dereferenceable(12) %1) #0 align 2 {
  %3 = alloca ptr, align 8
  %4 = alloca ptr, align 8
  %5 = alloca ptr, align 8
  %6 = alloca %"class.tbb::detail::d1::small_object_allocator", align 8
  store ptr %0, ptr %3, align 8
  store ptr %1, ptr %4, align 8
  %7 = load ptr, ptr %3, align 8
  %8 = getelementptr inbounds nuw %"struct.tbb::detail::d1::start_for.402", ptr %7, i32 0, i32 3
  %9 = load ptr, ptr %8, align 32
  store ptr %9, ptr %5, align 8
  %10 = getelementptr inbounds nuw %"struct.tbb::detail::d1::start_for.402", ptr %7, i32 0, i32 5
  call void @llvm.memcpy.p0.p0.i64(ptr align 8 %6, ptr align 8 %10, i64 8, i1 false)
  %11 = load ptr, ptr %7, align 64
  %12 = getelementptr inbounds ptr, ptr %11, i64 0
  %13 = load ptr, ptr %12, align 8
  call void %13(ptr noundef nonnull align 64 dereferenceable(128) %7) #11
  %14 = load ptr, ptr %5, align 8
  %15 = load ptr, ptr %4, align 8
  call void @_ZN3tbb6detail2d19fold_treeINS1_9tree_nodeEEEvPNS1_4nodeERKNS1_14execution_dataE(ptr noundef %14, ptr noundef nonnull align 8 dereferenceable(12) %15)
  %16 = load ptr, ptr %4, align 8
  call void @"_ZN3tbb6detail2d122small_object_allocator10deallocateINS1_9start_forINS1_13blocked_rangeImEEZN32pxrInternal_v0_24__pxrReserved__16WorkParallelForNIZNS7_12_GLOBAL__N_118_PostUpdateExtentsERKSt6vectorISt10shared_ptrINS9_16_SkinningAdapterEESaISD_EERKSA_INS7_11UsdTimeCodeESaISI_EEE3$_0EEvmOT_mE21Work_ParallelForN_TBBKNS1_16auto_partitionerEEEEEvPSO_RKNS1_14execution_dataE"(ptr noundef nonnull align 8 dereferenceable(8) %6, ptr noundef %7, ptr noundef nonnull align 8 dereferenceable(12) %16)
  ret void
}

; Function Attrs: mustprogress uwtable
define internal noundef ptr @"_ZN3tbb6detail2d19start_forINS1_13blocked_rangeImEEZN32pxrInternal_v0_24__pxrReserved__16WorkParallelForNIZNS5_12_GLOBAL__N_118_PostUpdateExtentsERKSt6vectorISt10shared_ptrINS7_16_SkinningAdapterEESaISB_EERKS8_INS5_11UsdTimeCodeESaISG_EEE3$_0EEvmOT_mE21Work_ParallelForN_TBBKNS1_16auto_partitionerEE6cancelERNS1_14execution_dataE"(ptr noundef nonnull align 64 dereferenceable(128) %0, ptr noundef nonnull align 8 dereferenceable(12) %1) unnamed_addr #0 align 2 {
  %3 = alloca ptr, align 8
  %4 = alloca ptr, align 8
  store ptr %0, ptr %3, align 8
  store ptr %1, ptr %4, align 8
  %5 = load ptr, ptr %3, align 8
  %6 = load ptr, ptr %4, align 8
  call void @"_ZN3tbb6detail2d19start_forINS1_13blocked_rangeImEEZN32pxrInternal_v0_24__pxrReserved__16WorkParallelForNIZNS5_12_GLOBAL__N_118_PostUpdateExtentsERKSt6vectorISt10shared_ptrINS7_16_SkinningAdapterEESaISB_EERKS8_INS5_11UsdTimeCodeESaISG_EEE3$_0EEvmOT_mE21Work_ParallelForN_TBBKNS1_16auto_partitionerEE8finalizeERKNS1_14execution_dataE"(ptr noundef nonnull align 64 dereferenceable(128) %5, ptr noundef nonnull align 8 dereferenceable(12) %6)
  ret ptr null
}